; Function Attrs: mustprogress uwtable
define hidden void @_ZN3smt5setup9setup_strEv(ptr noundef nonnull align 8 dereferenceable(33) %this) local_unnamed_addr #4 align 2 {
entry:
  tail call void @_ZN3smt5setup11setup_arithEv(ptr noundef nonnull align 8 dereferenceable(33) %this)
  %0 = load ptr, ptr %this, align 8
  %call = tail call noalias noundef ptr @_ZN6memory8allocateEm(i64 noundef 1800)
  %1 = load ptr, ptr %this, align 8
  %m_manager = getelementptr inbounds i8, ptr %this, i64 8
  %2 = load ptr, ptr %m_manager, align 8
  %m_params = getelementptr inbounds i8, ptr %this, i64 16
  %3 = load ptr, ptr %m_params, align 8
  %add.ptr = getelementptr inbounds i8, ptr %3, i64 440
  tail call void @_ZN3smt10theory_strC1ERNS_7contextER11ast_managerRK17theory_str_params(ptr noundef nonnull align 8 dereferenceable(1800) %call, ptr noundef nonnull align 8 dereferenceable(11616) %1, ptr noundef nonnull align 8 dereferenceable(976) %2, ptr noundef nonnull align 8 dereferenceable(38) %add.ptr)
  tail call void @_ZN3smt7context15register_pluginEPNS_6theoryE(ptr noundef nonnull align 8 dereferenceable(11616) %0, ptr noundef nonnull %call)
  ret void
}